target datalayout = "e-m:e-p270:32:32-p271:32:32-p272:64:64-i64:64-i128:128-f80:128-n8:16:32:64-S128"
target triple = "x86_64-pc-linux-gnu"

; Function Attrs: nounwind uwtable
define void @png_read_rows(ptr noalias noundef %0, ptr noundef %1, ptr noundef %2, i32 noundef %3) #0 {
  %5 = alloca ptr, align 8
  %6 = alloca ptr, align 8
  %7 = alloca ptr, align 8
  %8 = alloca i32, align 4
  %9 = alloca i32, align 4
  %10 = alloca ptr, align 8
  %11 = alloca ptr, align 8
  %12 = alloca ptr, align 8
  %13 = alloca ptr, align 8
  %14 = alloca ptr, align 8
  %15 = alloca ptr, align 8
  store ptr %0, ptr %5, align 8
  store ptr %1, ptr %6, align 8
  store ptr %2, ptr %7, align 8
  store i32 %3, ptr %8, align 4
  %16 = load ptr, ptr %5, align 8
  %17 = icmp eq ptr %16, null
  br i1 %17, label %18, label %19

18:                                               ; preds = %4
  br label %86

19:                                               ; preds = %4
  %20 = load ptr, ptr %6, align 8
  store ptr %20, ptr %10, align 8
  %21 = load ptr, ptr %7, align 8
  store ptr %21, ptr %11, align 8
  %22 = load ptr, ptr %10, align 8
  %23 = icmp ne ptr %22, null
  br i1 %23, label %24, label %46

24:                                               ; preds = %19
  %25 = load ptr, ptr %11, align 8
  %26 = icmp ne ptr %25, null
  br i1 %26, label %27, label %46

27:                                               ; preds = %24
  store i32 0, ptr %9, align 4
  br label %28

28:                                               ; preds = %42, %27
  %29 = load i32, ptr %9, align 4
  %30 = load i32, ptr %8, align 4
  %31 = icmp ult i32 %29, %30
  br i1 %31, label %32, label %45

32:                                               ; preds = %28
  %33 = load ptr, ptr %10, align 8
  %34 = getelementptr inbounds ptr, ptr %33, i32 1
  store ptr %34, ptr %10, align 8
  %35 = load ptr, ptr %33, align 8
  store ptr %35, ptr %12, align 8
  %36 = load ptr, ptr %11, align 8
  %37 = getelementptr inbounds ptr, ptr %36, i32 1
  store ptr %37, ptr %11, align 8
  %38 = load ptr, ptr %36, align 8
  store ptr %38, ptr %13, align 8
  %39 = load ptr, ptr %5, align 8
  %40 = load ptr, ptr %12, align 8
  %41 = load ptr, ptr %13, align 8
  call void @png_read_row(ptr noundef %39, ptr noundef %40, ptr noundef %41)
  br label %42

42:                                               ; preds = %32
  %43 = load i32, ptr %9, align 4
  %44 = add i32 %43, 1
  store i32 %44, ptr %9, align 4
  br label %28, !llvm.loop !7

45:                                               ; preds = %28
  br label %86

46:                                               ; preds = %24, %19
  %47 = load ptr, ptr %10, align 8
  %48 = icmp ne ptr %47, null
  br i1 %48, label %49, label %65

49:                                               ; preds = %46
  store i32 0, ptr %9, align 4
  br label %50

50:                                               ; preds = %61, %49
  %51 = load i32, ptr %9, align 4
  %52 = load i32, ptr %8, align 4
  %53 = icmp ult i32 %51, %52
  br i1 %53, label %54, label %64

54:                                               ; preds = %50
  %55 = load ptr, ptr %10, align 8
  %56 = load ptr, ptr %55, align 8
  store ptr %56, ptr %14, align 8
  %57 = load ptr, ptr %5, align 8
  %58 = load ptr, ptr %14, align 8
  call void @png_read_row(ptr noundef %57, ptr noundef %58, ptr noundef null)
  %59 = load ptr, ptr %10, align 8
  %60 = getelementptr inbounds ptr, ptr %59, i32 1
  store ptr %60, ptr %10, align 8
  br label %61

61:                                               ; preds = %54
  %62 = load i32, ptr %9, align 4
  %63 = add i32 %62, 1
  store i32 %63, ptr %9, align 4
  br label %50, !llvm.loop !8

64:                                               ; preds = %50
  br label %85

65:                                               ; preds = %46
  %66 = load ptr, ptr %11, align 8
  %67 = icmp ne ptr %66, null
  br i1 %67, label %68, label %84

68:                                               ; preds = %65
  store i32 0, ptr %9, align 4
  br label %69

69:                                               ; preds = %80, %68
  %70 = load i32, ptr %9, align 4
  %71 = load i32, ptr %8, align 4
  %72 = icmp ult i32 %70, %71
  br i1 %72, label %73, label %83

73:                                               ; preds = %69
  %74 = load ptr, ptr %11, align 8
  %75 = load ptr, ptr %74, align 8
  store ptr %75, ptr %15, align 8
  %76 = load ptr, ptr %5, align 8
  %77 = load ptr, ptr %15, align 8
  call void @png_read_row(ptr noundef %76, ptr noundef null, ptr noundef %77)
  %78 = load ptr, ptr %11, align 8
  %79 = getelementptr inbounds ptr, ptr %78, i32 1
  store ptr %79, ptr %11, align 8
  br label %80

80:                                               ; preds = %73
  %81 = load i32, ptr %9, align 4
  %82 = add i32 %81, 1
  store i32 %82, ptr %9, align 4
  br label %69, !llvm.loop !9

83:                                               ; preds = %69
  br label %84

84:                                               ; preds = %83, %65
  br label %85

85:                                               ; preds = %84, %64
  br label %86

86:                                               ; preds = %85, %45, %18
  ret void
}