; Function Attrs: nounwind uwtable
define void @png_read_rows(ptr noalias noundef %0, ptr noundef readonly %1, ptr noundef readonly %2, i32 noundef %3) local_unnamed_addr #0 {
  %5 = icmp eq ptr %0, null
  br i1 %5, label %.loopexit, label %6

6:                                                ; preds = %4
  %7 = icmp ne ptr %1, null
  %8 = icmp ne ptr %2, null
  %or.cond = and i1 %7, %8
  br i1 %or.cond, label %.preheader, label %14

.preheader:                                       ; preds = %6
  %.not52 = icmp eq i32 %3, 0
  br i1 %.not52, label %.loopexit, label %.lr.ph50

.lr.ph50:                                         ; preds = %.preheader, %.lr.ph50
  %.049 = phi i32 [ %13, %.lr.ph50 ], [ 0, %.preheader ]
  %.02948 = phi ptr [ %9, %.lr.ph50 ], [ %1, %.preheader ]
  %.03147 = phi ptr [ %11, %.lr.ph50 ], [ %2, %.preheader ]
  %9 = getelementptr inbounds i8, ptr %.02948, i64 8
  %10 = load ptr, ptr %.02948, align 8
  %11 = getelementptr inbounds i8, ptr %.03147, i64 8
  %12 = load ptr, ptr %.03147, align 8
  tail call void @png_read_row(ptr noundef nonnull %0, ptr noundef %10, ptr noundef %12)
  %13 = add nuw i32 %.049, 1
  %exitcond56.not = icmp eq i32 %13, %3
  br i1 %exitcond56.not, label %.loopexit, label %.lr.ph50, !llvm.loop !7

14:                                               ; preds = %6
  br i1 %7, label %.preheader38, label %18

.preheader38:                                     ; preds = %14
  %.not = icmp eq i32 %3, 0
  br i1 %.not, label %.loopexit, label %.lr.ph46

.lr.ph46:                                         ; preds = %.preheader38, %.lr.ph46
  %.145 = phi i32 [ %17, %.lr.ph46 ], [ 0, %.preheader38 ]
  %.13044 = phi ptr [ %16, %.lr.ph46 ], [ %1, %.preheader38 ]
  %15 = load ptr, ptr %.13044, align 8
  tail call void @png_read_row(ptr noundef nonnull %0, ptr noundef %15, ptr noundef null)
  %16 = getelementptr inbounds i8, ptr %.13044, i64 8
  %17 = add nuw i32 %.145, 1
  %exitcond55.not = icmp eq i32 %17, %3
  br i1 %exitcond55.not, label %.loopexit, label %.lr.ph46, !llvm.loop !8

18:                                               ; preds = %14
  %19 = icmp ne i32 %3, 0
  %or.cond51 = and i1 %8, %19
  br i1 %or.cond51, label %.lr.ph, label %.loopexit

.lr.ph:                                           ; preds = %18, %.lr.ph
  %.243 = phi i32 [ %22, %.lr.ph ], [ 0, %18 ]
  %.13242 = phi ptr [ %21, %.lr.ph ], [ %2, %18 ]
  %20 = load ptr, ptr %.13242, align 8
  tail call void @png_read_row(ptr noundef nonnull %0, ptr noundef null, ptr noundef %20)
  %21 = getelementptr inbounds i8, ptr %.13242, i64 8
  %22 = add nuw i32 %.243, 1
  %exitcond.not = icmp eq i32 %22, %3
  br i1 %exitcond.not, label %.loopexit, label %.lr.ph, !llvm.loop !9

.loopexit:                                        ; preds = %.lr.ph, %.lr.ph46, %.lr.ph50, %.preheader38, %.preheader, %18, %4
  ret void
}